target datalayout = "e-m:e-p270:32:32-p271:32:32-p272:64:64-i64:64-i128:128-f80:128-n8:16:32:64-S128"
target triple = "x86_64-pc-linux-gnu"

%struct.ForEachState = type { ptr, i32 }
%struct.List = type { i32, i32, i32, ptr, [0 x %union.ListCell] }
%union.ListCell = type { ptr }
%struct.String = type { i32, ptr }

@.str.4 = private unnamed_addr constant [19 x i8] c"subscriptioncmds.c\00", align 1
@.str.81 = private unnamed_addr constant [42 x i8] c"publication name \22%s\22 used more than once\00", align 1
@__func__.check_duplicates_in_publist = private unnamed_addr constant [28 x i8] c"check_duplicates_in_publist\00", align 1

; Function Attrs: inlinehint nounwind uwtable
define internal i64 @PointerGetDatum(ptr noundef %0) #5 {
  %2 = alloca ptr, align 8
  store ptr %0, ptr %2, align 8
  %3 = load ptr, ptr %2, align 8
  %4 = ptrtoint ptr %3 to i64
  ret i64 %4
}

; Function Attrs: nounwind uwtable
define internal void @check_duplicates_in_publist(ptr noundef %0, ptr noundef %1) #0 {
  %3 = alloca ptr, align 8
  %4 = alloca ptr, align 8
  %5 = alloca ptr, align 8
  %6 = alloca i32, align 4
  %7 = alloca %struct.ForEachState, align 8
  %8 = alloca i32, align 4
  %9 = alloca ptr, align 8
  %10 = alloca ptr, align 8
  %11 = alloca %struct.ForEachState, align 8
  %12 = alloca ptr, align 8
  store ptr %0, ptr %3, align 8
  store ptr %1, ptr %4, align 8
  call void @llvm.lifetime.start.p0(i64 8, ptr %5) #10
  call void @llvm.lifetime.start.p0(i64 4, ptr %6) #10
  store i32 0, ptr %6, align 4
  call void @llvm.lifetime.start.p0(i64 16, ptr %7) #10
  %13 = getelementptr inbounds nuw %struct.ForEachState, ptr %7, i32 0, i32 0
  %14 = load ptr, ptr %3, align 8
  store ptr %14, ptr %13, align 8
  %15 = getelementptr inbounds nuw %struct.ForEachState, ptr %7, i32 0, i32 1
  store i32 0, ptr %15, align 8
  %16 = getelementptr i8, ptr %7, i64 12
  call void @llvm.memset.p0.i64(ptr align 4 %16, i8 0, i64 4, i1 false)
  br label %17

17:                                               ; preds = %127, %2
  %18 = getelementptr inbounds nuw %struct.ForEachState, ptr %7, i32 0, i32 0
  %19 = load ptr, ptr %18, align 8
  %20 = icmp ne ptr %19, null
  br i1 %20, label %21, label %38

21:                                               ; preds = %17
  %22 = getelementptr inbounds nuw %struct.ForEachState, ptr %7, i32 0, i32 1
  %23 = load i32, ptr %22, align 8
  %24 = getelementptr inbounds nuw %struct.ForEachState, ptr %7, i32 0, i32 0
  %25 = load ptr, ptr %24, align 8
  %26 = getelementptr inbounds nuw %struct.List, ptr %25, i32 0, i32 1
  %27 = load i32, ptr %26, align 4
  %28 = icmp slt i32 %23, %27
  br i1 %28, label %29, label %38

29:                                               ; preds = %21
  %30 = getelementptr inbounds nuw %struct.ForEachState, ptr %7, i32 0, i32 0
  %31 = load ptr, ptr %30, align 8
  %32 = getelementptr inbounds nuw %struct.List, ptr %31, i32 0, i32 3
  %33 = load ptr, ptr %32, align 8
  %34 = getelementptr inbounds nuw %struct.ForEachState, ptr %7, i32 0, i32 1
  %35 = load i32, ptr %34, align 8
  %36 = sext i32 %35 to i64
  %37 = getelementptr inbounds %union.ListCell, ptr %33, i64 %36
  store ptr %37, ptr %5, align 8
  br label %39

38:                                               ; preds = %21, %17
  store ptr null, ptr %5, align 8
  br label %39

39:                                               ; preds = %38, %29
  %40 = phi i32 [ 1, %29 ], [ 0, %38 ]
  %41 = icmp ne i32 %40, 0
  br i1 %41, label %43, label %42

42:                                               ; preds = %39
  store i32 2, ptr %8, align 4
  call void @llvm.lifetime.end.p0(i64 16, ptr %7) #10
  br label %131

43:                                               ; preds = %39
  call void @llvm.lifetime.start.p0(i64 8, ptr %9) #10
  %44 = load ptr, ptr %5, align 8
  %45 = load ptr, ptr %44, align 8
  %46 = getelementptr inbounds nuw %struct.String, ptr %45, i32 0, i32 1
  %47 = load ptr, ptr %46, align 8
  store ptr %47, ptr %9, align 8
  call void @llvm.lifetime.start.p0(i64 8, ptr %10) #10
  call void @llvm.lifetime.start.p0(i64 16, ptr %11) #10
  %48 = getelementptr inbounds nuw %struct.ForEachState, ptr %11, i32 0, i32 0
  %49 = load ptr, ptr %3, align 8
  store ptr %49, ptr %48, align 8
  %50 = getelementptr inbounds nuw %struct.ForEachState, ptr %11, i32 0, i32 1
  store i32 0, ptr %50, align 8
  %51 = getelementptr i8, ptr %11, i64 12
  call void @llvm.memset.p0.i64(ptr align 4 %51, i8 0, i64 4, i1 false)
  br label %52

52:                                               ; preds = %109, %43
  %53 = getelementptr inbounds nuw %struct.ForEachState, ptr %11, i32 0, i32 0
  %54 = load ptr, ptr %53, align 8
  %55 = icmp ne ptr %54, null
  br i1 %55, label %56, label %73

56:                                               ; preds = %52
  %57 = getelementptr inbounds nuw %struct.ForEachState, ptr %11, i32 0, i32 1
  %58 = load i32, ptr %57, align 8
  %59 = getelementptr inbounds nuw %struct.ForEachState, ptr %11, i32 0, i32 0
  %60 = load ptr, ptr %59, align 8
  %61 = getelementptr inbounds nuw %struct.List, ptr %60, i32 0, i32 1
  %62 = load i32, ptr %61, align 4
  %63 = icmp slt i32 %58, %62
  br i1 %63, label %64, label %73

64:                                               ; preds = %56
  %65 = getelementptr inbounds nuw %struct.ForEachState, ptr %11, i32 0, i32 0
  %66 = load ptr, ptr %65, align 8
  %67 = getelementptr inbounds nuw %struct.List, ptr %66, i32 0, i32 3
  %68 = load ptr, ptr %67, align 8
  %69 = getelementptr inbounds nuw %struct.ForEachState, ptr %11, i32 0, i32 1
  %70 = load i32, ptr %69, align 8
  %71 = sext i32 %70 to i64
  %72 = getelementptr inbounds %union.ListCell, ptr %68, i64 %71
  store ptr %72, ptr %10, align 8
  br label %74

73:                                               ; preds = %56, %52
  store ptr null, ptr %10, align 8
  br label %74

74:                                               ; preds = %73, %64
  %75 = phi i32 [ 1, %64 ], [ 0, %73 ]
  %76 = icmp ne i32 %75, 0
  br i1 %76, label %78, label %77

77:                                               ; preds = %74
  store i32 5, ptr %8, align 4
  br label %113

78:                                               ; preds = %74
  call void @llvm.lifetime.start.p0(i64 8, ptr %12) #10
  %79 = load ptr, ptr %10, align 8
  %80 = load ptr, ptr %79, align 8
  %81 = getelementptr inbounds nuw %struct.String, ptr %80, i32 0, i32 1
  %82 = load ptr, ptr %81, align 8
  store ptr %82, ptr %12, align 8
  %83 = load ptr, ptr %10, align 8
  %84 = load ptr, ptr %5, align 8
  %85 = icmp eq ptr %83, %84
  br i1 %85, label %86, label %87

86:                                               ; preds = %78
  store i32 5, ptr %8, align 4
  br label %106

87:                                               ; preds = %78
  %88 = load ptr, ptr %9, align 8
  %89 = load ptr, ptr %12, align 8
  %90 = call i32 @strcmp(ptr noundef %88, ptr noundef %89) #14
  %91 = icmp eq i32 %90, 0
  br i1 %91, label %92, label %105

92:                                               ; preds = %87
  br label %93

93:                                               ; preds = %92
  br i1 true, label %94, label %96

94:                                               ; preds = %93
  %95 = call zeroext i1 @errstart_cold(i32 noundef 21, ptr noundef null) #11
  br i1 %95, label %98, label %102

96:                                               ; preds = %93
  %97 = call zeroext i1 @errstart(i32 noundef 21, ptr noundef null)
  br i1 %97, label %98, label %102

98:                                               ; preds = %96, %94
  %99 = call i32 @errcode(i32 noundef 290948)
  %100 = load ptr, ptr %12, align 8
  %101 = call i32 (ptr, ...) @errmsg(ptr noundef @.str.81, ptr noundef %100)
  call void @errfinish(ptr noundef @.str.4, i32 noundef 2378, ptr noundef @__func__.check_duplicates_in_publist)
  br label %102

102:                                              ; preds = %98, %96, %94
  unreachable

103:                                              ; No predecessors!
  br label %104

104:                                              ; preds = %103
  br label %105

105:                                              ; preds = %104, %87
  store i32 0, ptr %8, align 4
  br label %106

106:                                              ; preds = %105, %86
  call void @llvm.lifetime.end.p0(i64 8, ptr %12) #10
  %107 = load i32, ptr %8, align 4
  switch i32 %107, label %113 [
    i32 0, label %108
  ]

108:                                              ; preds = %106
  br label %109

109:                                              ; preds = %108
  %110 = getelementptr inbounds nuw %struct.ForEachState, ptr %11, i32 0, i32 1
  %111 = load i32, ptr %110, align 8
  %112 = add i32 %111, 1
  store i32 %112, ptr %110, align 8
  br label %52, !llvm.loop !23

113:                                              ; preds = %106, %77
  call void @llvm.lifetime.end.p0(i64 16, ptr %11) #10
  br label %114

114:                                              ; preds = %113
  %115 = load ptr, ptr %4, align 8
  %116 = icmp ne ptr %115, null
  br i1 %116, label %117, label %126

117:                                              ; preds = %114
  %118 = load ptr, ptr %9, align 8
  %119 = call ptr @cstring_to_text(ptr noundef %118)
  %120 = call i64 @PointerGetDatum(ptr noundef %119)
  %121 = load ptr, ptr %4, align 8
  %122 = load i32, ptr %6, align 4
  %123 = add i32 %122, 1
  store i32 %123, ptr %6, align 4
  %124 = sext i32 %122 to i64
  %125 = getelementptr inbounds i64, ptr %121, i64 %124
  store i64 %120, ptr %125, align 8
  br label %126

126:                                              ; preds = %117, %114
  call void @llvm.lifetime.end.p0(i64 8, ptr %10) #10
  call void @llvm.lifetime.end.p0(i64 8, ptr %9) #10
  br label %127

127:                                              ; preds = %126
  %128 = getelementptr inbounds nuw %struct.ForEachState, ptr %7, i32 0, i32 1
  %129 = load i32, ptr %128, align 8
  %130 = add i32 %129, 1
  store i32 %130, ptr %128, align 8
  br label %17, !llvm.loop !24

131:                                              ; preds = %42
  call void @llvm.lifetime.end.p0(i64 4, ptr %6) #10
  call void @llvm.lifetime.end.p0(i64 8, ptr %5) #10
  ret void
}