; Function Attrs: nounwind uwtable
define internal fastcc void @check_duplicates_in_publist(ptr noundef readonly captures(address_is_null) %0, ptr noundef writeonly captures(address_is_null) %1) unnamed_addr #0 {
  %.not = icmp eq ptr %0, null
  br i1 %.not, label %._crit_edge, label %.lr.ph44

.lr.ph44:                                         ; preds = %2
  %3 = getelementptr inbounds nuw i8, ptr %0, i64 4
  %4 = getelementptr inbounds nuw i8, ptr %0, i64 16
  %.not33 = icmp eq ptr %1, null
  %5 = load i32, ptr %3, align 4
  %6 = icmp sgt i32 %5, 0
  br i1 %.not33, label %.lr.ph44.split.us.split, label %.lr.ph44.split.split

.lr.ph44.split.us.split:                          ; preds = %.lr.ph44
  br i1 %6, label %.lr.ph61.split.us, label %._crit_edge

.lr.ph61.split.us:                                ; preds = %.lr.ph44.split.us.split
  %7 = load ptr, ptr %4, align 8
  %wide.trip.count90 = zext nneg i32 %5 to i64
  br label %.lr.ph.us.us65

.lr.ph.us.us65:                                   ; preds = %.critedge.us.us64, %.lr.ph61.split.us
  %indvars.iv87 = phi i64 [ %indvars.iv.next88, %.critedge.us.us64 ], [ 0, %.lr.ph61.split.us ]
  %8 = getelementptr inbounds nuw %union.ListCell, ptr %7, i64 %indvars.iv87
  %9 = load ptr, ptr %8, align 8
  %10 = getelementptr inbounds nuw i8, ptr %9, i64 8
  %11 = load ptr, ptr %10, align 8
  br label %13

12:                                               ; preds = %14
  %indvars.iv.next83 = add nuw nsw i64 %indvars.iv82, 1
  %exitcond86.not = icmp eq i64 %indvars.iv.next83, %wide.trip.count90
  br i1 %exitcond86.not, label %.critedge.us.us64, label %13, !llvm.loop !14

13:                                               ; preds = %.lr.ph.us.us65, %12
  %indvars.iv82 = phi i64 [ 0, %.lr.ph.us.us65 ], [ %indvars.iv.next83, %12 ]
  %.not32.us.us63 = icmp samesign eq i64 %indvars.iv82, %indvars.iv87
  br i1 %.not32.us.us63, label %.critedge.us.us64, label %14

14:                                               ; preds = %13
  %15 = getelementptr inbounds nuw %union.ListCell, ptr %7, i64 %indvars.iv82
  %16 = load ptr, ptr %15, align 8
  %17 = getelementptr inbounds nuw i8, ptr %16, i64 8
  %18 = load ptr, ptr %17, align 8
  %19 = tail call i32 @strcmp(ptr noundef nonnull dereferenceable(1) %11, ptr noundef nonnull dereferenceable(1) %18) #14
  %20 = icmp eq i32 %19, 0
  br i1 %20, label %.split.us, label %12

.critedge.us.us64:                                ; preds = %13, %12
  %indvars.iv.next88 = add nuw nsw i64 %indvars.iv87, 1
  %exitcond91.not = icmp eq i64 %indvars.iv.next88, %wide.trip.count90
  br i1 %exitcond91.not, label %._crit_edge, label %.lr.ph.us.us65

.lr.ph44.split.split:                             ; preds = %.lr.ph44
  br i1 %6, label %.lr.ph58, label %._crit_edge

._crit_edge:                                      ; preds = %.critedge, %.critedge.us.us64, %.lr.ph44.split.us.split, %.lr.ph44.split.split, %2
  ret void

.lr.ph58:                                         ; preds = %.lr.ph44.split.split, %.critedge
  %21 = phi i32 [ %43, %.critedge ], [ %5, %.lr.ph44.split.split ]
  %indvars.iv77 = phi i64 [ %indvars.iv.next78, %.critedge ], [ 0, %.lr.ph44.split.split ]
  %22 = load ptr, ptr %4, align 8
  %23 = getelementptr inbounds nuw %union.ListCell, ptr %22, i64 %indvars.iv77
  %24 = load ptr, ptr %23, align 8
  %25 = getelementptr inbounds nuw i8, ptr %24, i64 8
  %26 = load ptr, ptr %25, align 8
  %27 = icmp sgt i32 %21, 0
  br i1 %27, label %.lr.ph, label %.critedge

.lr.ph:                                           ; preds = %.lr.ph58
  %wide.trip.count = zext nneg i32 %21 to i64
  br label %29

28:                                               ; preds = %30
  %indvars.iv.next = add nuw nsw i64 %indvars.iv, 1
  %exitcond.not = icmp eq i64 %indvars.iv.next, %wide.trip.count
  br i1 %exitcond.not, label %.critedge, label %29, !llvm.loop !14

29:                                               ; preds = %.lr.ph, %28
  %indvars.iv = phi i64 [ 0, %.lr.ph ], [ %indvars.iv.next, %28 ]
  %.not32 = icmp samesign eq i64 %indvars.iv, %indvars.iv77
  br i1 %.not32, label %.critedge, label %30

30:                                               ; preds = %29
  %31 = getelementptr inbounds nuw %union.ListCell, ptr %22, i64 %indvars.iv
  %32 = load ptr, ptr %31, align 8
  %33 = getelementptr inbounds nuw i8, ptr %32, i64 8
  %34 = load ptr, ptr %33, align 8
  %35 = tail call i32 @strcmp(ptr noundef nonnull dereferenceable(1) %26, ptr noundef nonnull dereferenceable(1) %34) #14
  %36 = icmp eq i32 %35, 0
  br i1 %36, label %.split.us, label %28

.split.us:                                        ; preds = %30, %14
  %.us-phi = phi ptr [ %18, %14 ], [ %34, %30 ]
  %37 = tail call zeroext i1 @errstart_cold(i32 noundef 21, ptr noundef null) #11
  tail call void @llvm.assume(i1 %37)
  %38 = tail call i32 @errcode(i32 noundef 290948) #10
  %39 = tail call i32 (ptr, ...) @errmsg(ptr noundef nonnull @.str.81, ptr noundef nonnull %.us-phi) #10
  tail call void @errfinish(ptr noundef nonnull @.str.4, i32 noundef 2378, ptr noundef nonnull @__func__.check_duplicates_in_publist) #10
  unreachable

.critedge:                                        ; preds = %29, %28, %.lr.ph58
  %40 = tail call ptr @cstring_to_text(ptr noundef %26) #10
  %41 = ptrtoint ptr %40 to i64
  %indvars.iv.next78 = add nuw nsw i64 %indvars.iv77, 1
  %42 = getelementptr inbounds nuw i64, ptr %1, i64 %indvars.iv77
  store i64 %41, ptr %42, align 8
  %43 = load i32, ptr %3, align 4
  %44 = sext i32 %43 to i64
  %45 = icmp slt i64 %indvars.iv.next78, %44
  br i1 %45, label %.lr.ph58, label %._crit_edge
}